; Function Attrs: mustprogress uwtable
define void @unumrf_formatDoubleRange_77(ptr noundef %0, double noundef %1, double noundef %2, ptr noundef %3, ptr noundef %4) local_unnamed_addr #1 {
  %6 = load i32, ptr %4, align 4, !tbaa !13
  %7 = icmp slt i32 %6, 1
  br i1 %7, label %8, label %_ZN6icu_7713IcuCApiHelperI21UFormattedNumberRangeNS_6number4impl25UFormattedNumberRangeImplELi1178881536EE8validateEPS1_R10UErrorCode.exit.thread

8:                                                ; preds = %5
  %9 = icmp eq ptr %0, null
  br i1 %9, label %.sink.split.i, label %10

10:                                               ; preds = %8
  %11 = load i32, ptr %0, align 4, !tbaa !43
  %.not9.i = icmp eq i32 %11, 1314014720
  br i1 %.not9.i, label %_ZN6icu_7713IcuCApiHelperI21UNumberRangeFormatterNS_6number4impl25UNumberRangeFormatterDataELi1314014720EE8validateEPKS1_R10UErrorCode.exit, label %.sink.split.i

.sink.split.i:                                    ; preds = %10, %8
  %.sink.i = phi i32 [ 1, %8 ], [ 3, %10 ]
  store i32 %.sink.i, ptr %4, align 4, !tbaa !13
  br label %_ZN6icu_7713IcuCApiHelperI21UFormattedNumberRangeNS_6number4impl25UFormattedNumberRangeImplELi1178881536EE8validateEPS1_R10UErrorCode.exit.thread

_ZN6icu_7713IcuCApiHelperI21UNumberRangeFormatterNS_6number4impl25UNumberRangeFormatterDataELi1314014720EE8validateEPKS1_R10UErrorCode.exit: ; preds = %10
  %12 = icmp eq ptr %3, null
  br i1 %12, label %.sink.split.i.i, label %13

13:                                               ; preds = %_ZN6icu_7713IcuCApiHelperI21UNumberRangeFormatterNS_6number4impl25UNumberRangeFormatterDataELi1314014720EE8validateEPKS1_R10UErrorCode.exit
  %14 = getelementptr inbounds nuw i8, ptr %3, i64 16
  %15 = load i32, ptr %14, align 4, !tbaa !20
  %.not9.i.i = icmp eq i32 %15, 1178881536
  br i1 %.not9.i.i, label %_ZN6icu_7713IcuCApiHelperI21UFormattedNumberRangeNS_6number4impl25UFormattedNumberRangeImplELi1178881536EE8validateEPS1_R10UErrorCode.exit, label %.sink.split.i.i

.sink.split.i.i:                                  ; preds = %13, %_ZN6icu_7713IcuCApiHelperI21UNumberRangeFormatterNS_6number4impl25UNumberRangeFormatterDataELi1314014720EE8validateEPKS1_R10UErrorCode.exit
  %.sink.i.i = phi i32 [ 1, %_ZN6icu_7713IcuCApiHelperI21UNumberRangeFormatterNS_6number4impl25UNumberRangeFormatterDataELi1314014720EE8validateEPKS1_R10UErrorCode.exit ], [ 3, %13 ]
  store i32 %.sink.i.i, ptr %4, align 4, !tbaa !13
  br label %_ZN6icu_7713IcuCApiHelperI21UFormattedNumberRangeNS_6number4impl25UFormattedNumberRangeImplELi1178881536EE8validateEPS1_R10UErrorCode.exit.thread

_ZN6icu_7713IcuCApiHelperI21UFormattedNumberRangeNS_6number4impl25UFormattedNumberRangeImplELi1178881536EE8validateEPS1_R10UErrorCode.exit: ; preds = %13
  %16 = getelementptr inbounds nuw i8, ptr %3, i64 48
  tail call void @_ZN6icu_7731FormattedValueStringBuilderImpl11resetStringEv(ptr noundef nonnull align 8 dereferenceable(300) %16)
  %17 = getelementptr inbounds nuw i8, ptr %3, i64 352
  tail call void @_ZN6icu_776number4impl15DecimalQuantity5clearEv(ptr noundef nonnull align 8 dereferenceable(66) %17)
  %18 = getelementptr inbounds nuw i8, ptr %3, i64 424
  tail call void @_ZN6icu_776number4impl15DecimalQuantity5clearEv(ptr noundef nonnull align 8 dereferenceable(66) %18)
  %19 = tail call noundef nonnull align 8 dereferenceable(66) ptr @_ZN6icu_776number4impl15DecimalQuantity11setToDoubleEd(ptr noundef nonnull align 8 dereferenceable(66) %17, double noundef %1)
  %20 = tail call noundef nonnull align 8 dereferenceable(66) ptr @_ZN6icu_776number4impl15DecimalQuantity11setToDoubleEd(ptr noundef nonnull align 8 dereferenceable(66) %18, double noundef %2)
  %21 = getelementptr inbounds nuw i8, ptr %0, i64 8
  %22 = fcmp oeq double %1, %2
  tail call void @_ZNK6icu_776number29LocalizedNumberRangeFormatter10formatImplERNS0_4impl25UFormattedNumberRangeDataEbR10UErrorCode(ptr noundef nonnull align 8 dereferenceable(1216) %21, ptr noundef nonnull align 8 dereferenceable(452) %16, i1 noundef zeroext %22, ptr noundef nonnull align 4 dereferenceable(4) %4)
  br label %_ZN6icu_7713IcuCApiHelperI21UFormattedNumberRangeNS_6number4impl25UFormattedNumberRangeImplELi1178881536EE8validateEPS1_R10UErrorCode.exit.thread

_ZN6icu_7713IcuCApiHelperI21UFormattedNumberRangeNS_6number4impl25UFormattedNumberRangeImplELi1178881536EE8validateEPS1_R10UErrorCode.exit.thread: ; preds = %.sink.split.i, %5, %.sink.split.i.i, %_ZN6icu_7713IcuCApiHelperI21UFormattedNumberRangeNS_6number4impl25UFormattedNumberRangeImplELi1178881536EE8validateEPS1_R10UErrorCode.exit
  ret void
}